; Function Attrs: nounwind uwtable
define ptr @l_Lake_extractLog___rarg___lambda__2___boxed(ptr noundef %0, ptr noundef %1, ptr noundef %2, ptr noundef %3, ptr noundef %4) #1 {
  tail call void @lean_inc_heartbeat() #9
  %6 = tail call noalias ptr @mi_malloc_small(i64 noundef 40) #9
  %7 = icmp eq ptr %6, null
  br i1 %7, label %8, label %l_Lake_extractLog___rarg___lambda__2.exit

8:                                                ; preds = %5
  tail call void @lean_internal_panic_out_of_memory() #10
  unreachable

l_Lake_extractLog___rarg___lambda__2.exit:        ; preds = %5
  %9 = getelementptr inbounds nuw i8, ptr %6, i64 4
  store i32 1, ptr %6, align 4, !tbaa !4
  store i32 -184549336, ptr %9, align 4
  %10 = getelementptr inbounds nuw i8, ptr %6, i64 8
  store ptr @l_Lake_extractLog___rarg___lambda__1___boxed, ptr %10, align 8, !tbaa !10
  %11 = getelementptr inbounds nuw i8, ptr %6, i64 16
  store i16 3, ptr %11, align 8, !tbaa !12
  %12 = getelementptr inbounds nuw i8, ptr %6, i64 18
  store i16 2, ptr %12, align 2, !tbaa !12
  %13 = getelementptr inbounds nuw i8, ptr %6, i64 24
  store ptr %0, ptr %13, align 8, !tbaa !10
  %14 = getelementptr inbounds nuw i8, ptr %6, i64 32
  store ptr %1, ptr %14, align 8, !tbaa !10
  %15 = tail call ptr @lean_apply_4(ptr noundef %2, ptr noundef nonnull inttoptr (i64 1 to ptr), ptr noundef nonnull inttoptr (i64 1 to ptr), ptr noundef %3, ptr noundef nonnull %6) #9
  %16 = ptrtoint ptr %4 to i64
  %17 = and i64 %16, 1
  %.not = icmp eq i64 %17, 0
  br i1 %.not, label %18, label %lean_dec.exit

18:                                               ; preds = %l_Lake_extractLog___rarg___lambda__2.exit
  %19 = load i32, ptr %4, align 4, !tbaa !4
  %20 = icmp sgt i32 %19, 1
  br i1 %20, label %21, label %23, !prof !9

21:                                               ; preds = %18
  %22 = add nsw i32 %19, -1
  store i32 %22, ptr %4, align 4, !tbaa !4
  br label %lean_dec.exit

23:                                               ; preds = %18
  %.not.i = icmp eq i32 %19, 0
  br i1 %.not.i, label %lean_dec.exit, label %24

24:                                               ; preds = %23
  tail call void @lean_dec_ref_cold(ptr noundef nonnull %4) #9
  br label %lean_dec.exit

lean_dec.exit:                                    ; preds = %24, %23, %21, %l_Lake_extractLog___rarg___lambda__2.exit
  ret ptr %15
}